target datalayout = "e-m:e-p270:32:32-p271:32:32-p272:64:64-i64:64-i128:128-f80:128-n8:16:32:64-S128"
target triple = "x86_64-pc-linux-gnu"

%"struct.facebook::yoga::LayoutResults" = type { i32, %"struct.facebook::yoga::FloatOptional", i32, i32, i8, i32, %"struct.std::array.5", %"struct.facebook::yoga::CachedMeasurement", i8, %"struct.std::array.6", %"struct.std::array.6", %"struct.std::array.7", %"struct.std::array.7", %"struct.std::array.7", %"struct.std::array.7" }
%"struct.facebook::yoga::FloatOptional" = type { float }
%"struct.std::array.5" = type { [8 x %"struct.facebook::yoga::CachedMeasurement"] }
%"struct.facebook::yoga::CachedMeasurement" = type { float, float, i32, i32, float, float }
%"struct.std::array.6" = type { [2 x float] }
%"struct.std::array.7" = type { [4 x float] }
%"class.facebook::yoga::Node" = type { i8, ptr, ptr, ptr, ptr, %"class.facebook::yoga::Style", %"struct.facebook::yoga::LayoutResults", i64, i64, ptr, %"class.std::vector", ptr, %"struct.std::array.8" }
%"class.facebook::yoga::Style" = type { i32, %"class.facebook::yoga::StyleValueHandle", %"class.facebook::yoga::StyleValueHandle", %"class.facebook::yoga::StyleValueHandle", %"class.facebook::yoga::StyleValueHandle", %"struct.std::array", %"struct.std::array", %"struct.std::array", %"struct.std::array", %"struct.std::array.0", %"struct.std::array.1", %"struct.std::array.1", %"struct.std::array.1", %"class.facebook::yoga::StyleValueHandle", %"class.facebook::yoga::StyleValuePool" }
%"struct.std::array" = type { [9 x %"class.facebook::yoga::StyleValueHandle"] }
%"struct.std::array.0" = type { [3 x %"class.facebook::yoga::StyleValueHandle"] }
%"struct.std::array.1" = type { [2 x %"class.facebook::yoga::StyleValueHandle"] }
%"class.facebook::yoga::StyleValueHandle" = type { i16 }
%"class.facebook::yoga::StyleValuePool" = type { %"class.facebook::yoga::SmallValueBuffer" }
%"class.facebook::yoga::SmallValueBuffer" = type { i16, %"struct.std::array.2", %"class.std::bitset", %"class.std::unique_ptr" }
%"struct.std::array.2" = type { [4 x i32] }
%"class.std::bitset" = type { %"struct.std::_Base_bitset" }
%"struct.std::_Base_bitset" = type { i64 }
%"class.std::unique_ptr" = type { %"struct.std::__uniq_ptr_data" }
%"struct.std::__uniq_ptr_data" = type { %"class.std::__uniq_ptr_impl" }
%"class.std::__uniq_ptr_impl" = type { %"class.std::tuple" }
%"class.std::tuple" = type { %"struct.std::_Tuple_impl" }
%"struct.std::_Tuple_impl" = type { %"struct.std::_Head_base.4" }
%"struct.std::_Head_base.4" = type { ptr }
%"class.std::vector" = type { %"struct.std::_Vector_base" }
%"struct.std::_Vector_base" = type { %"struct.std::_Vector_base<facebook::yoga::Node *, std::allocator<facebook::yoga::Node *>>::_Vector_impl" }
%"struct.std::_Vector_base<facebook::yoga::Node *, std::allocator<facebook::yoga::Node *>>::_Vector_impl" = type { %"struct.std::_Vector_base<facebook::yoga::Node *, std::allocator<facebook::yoga::Node *>>::_Vector_impl_data" }
%"struct.std::_Vector_base<facebook::yoga::Node *, std::allocator<facebook::yoga::Node *>>::_Vector_impl_data" = type { ptr, ptr, ptr }
%"struct.std::array.8" = type { [2 x %"class.facebook::yoga::StyleSizeLength"] }
%"class.facebook::yoga::StyleSizeLength" = type <{ %"struct.facebook::yoga::FloatOptional", i8, [3 x i8] }>
%"class.__gnu_cxx::__normal_iterator" = type { ptr }

; Function Attrs: mustprogress nounwind uwtable
define linkonce_odr noundef float @_ZNSt14numeric_limitsIfE9quiet_NaNEv() #2 comdat align 2 {
  ret float 0x7FF8000000000000
}

; Function Attrs: mustprogress nounwind uwtable
define linkonce_odr noundef nonnull align 8 dereferenceable(8) ptr @_ZNK9__gnu_cxx17__normal_iteratorIPKPN8facebook4yoga4NodeESt6vectorIS4_SaIS4_EEE4baseEv(ptr noundef nonnull align 8 dereferenceable(8) %0) #2 comdat align 2 {
  %2 = alloca ptr, align 8
  store ptr %0, ptr %2, align 8, !tbaa !222
  %3 = load ptr, ptr %2, align 8
  %4 = getelementptr inbounds nuw %"class.__gnu_cxx::__normal_iterator", ptr %3, i32 0, i32 0
  ret ptr %4
}

; Function Attrs: mustprogress nounwind uwtable
define linkonce_odr void @_ZN9__gnu_cxx17__normal_iteratorIPKPN8facebook4yoga4NodeESt6vectorIS4_SaIS4_EEEC2ERKS6_(ptr noundef nonnull align 8 dereferenceable(8) %0, ptr noundef nonnull align 8 dereferenceable(8) %1) unnamed_addr #2 comdat align 2 {
  %3 = alloca ptr, align 8
  %4 = alloca ptr, align 8
  store ptr %0, ptr %3, align 8, !tbaa !222
  store ptr %1, ptr %4, align 8, !tbaa !292
  %5 = load ptr, ptr %3, align 8
  %6 = getelementptr inbounds nuw %"class.__gnu_cxx::__normal_iterator", ptr %5, i32 0, i32 0
  %7 = load ptr, ptr %4, align 8, !tbaa !292
  %8 = load ptr, ptr %7, align 8, !tbaa !224
  store ptr %8, ptr %6, align 8, !tbaa !225
  ret void
}

; Function Attrs: mustprogress nounwind uwtable
define linkonce_odr hidden void @_ZN8facebook4yoga13FloatOptionalC2Ev(ptr noundef nonnull align 4 dereferenceable(4) %0) unnamed_addr #2 comdat align 2 {
  %2 = alloca ptr, align 8
  store ptr %0, ptr %2, align 8, !tbaa !142
  %3 = load ptr, ptr %2, align 8
  %4 = getelementptr inbounds nuw %"struct.facebook::yoga::FloatOptional", ptr %3, i32 0, i32 0
  %5 = call noundef float @_ZNSt14numeric_limitsIfE9quiet_NaNEv() #19
  store float %5, ptr %4, align 4, !tbaa !144
  ret void
}

; Function Attrs: mustprogress nounwind uwtable
define linkonce_odr noundef nonnull align 8 dereferenceable(8) ptr @_ZN9__gnu_cxx17__normal_iteratorIPKPN8facebook4yoga4NodeESt6vectorIS4_SaIS4_EEEppEv(ptr noundef nonnull align 8 dereferenceable(8) %0) #2 comdat align 2 {
  %2 = alloca ptr, align 8
  store ptr %0, ptr %2, align 8, !tbaa !222
  %3 = load ptr, ptr %2, align 8
  %4 = getelementptr inbounds nuw %"class.__gnu_cxx::__normal_iterator", ptr %3, i32 0, i32 0
  %5 = load ptr, ptr %4, align 8, !tbaa !225
  %6 = getelementptr inbounds nuw ptr, ptr %5, i32 1
  store ptr %6, ptr %4, align 8, !tbaa !225
  ret ptr %3
}

; Function Attrs: mustprogress nounwind uwtable
define linkonce_odr noundef nonnull align 8 dereferenceable(8) ptr @_ZNK9__gnu_cxx17__normal_iteratorIPKPN8facebook4yoga4NodeESt6vectorIS4_SaIS4_EEEdeEv(ptr noundef nonnull align 8 dereferenceable(8) %0) #2 comdat align 2 {
  %2 = alloca ptr, align 8
  store ptr %0, ptr %2, align 8, !tbaa !222
  %3 = load ptr, ptr %2, align 8
  %4 = getelementptr inbounds nuw %"class.__gnu_cxx::__normal_iterator", ptr %3, i32 0, i32 0
  %5 = load ptr, ptr %4, align 8, !tbaa !225
  ret ptr %5
}

; Function Attrs: mustprogress nounwind uwtable
define linkonce_odr noundef zeroext i1 @_ZN9__gnu_cxxeqIPKPN8facebook4yoga4NodeESt6vectorIS4_SaIS4_EEEEbRKNS_17__normal_iteratorIT_T0_EESF_QrqXeqcldtfp_4baseEcldtfp0_4baseERSt14convertible_toIbEE(ptr noundef nonnull align 8 dereferenceable(8) %0, ptr noundef nonnull align 8 dereferenceable(8) %1) #2 comdat {
  %3 = alloca ptr, align 8
  %4 = alloca ptr, align 8
  store ptr %0, ptr %3, align 8, !tbaa !222
  store ptr %1, ptr %4, align 8, !tbaa !222
  %5 = load ptr, ptr %3, align 8, !tbaa !222
  %6 = call noundef nonnull align 8 dereferenceable(8) ptr @_ZNK9__gnu_cxx17__normal_iteratorIPKPN8facebook4yoga4NodeESt6vectorIS4_SaIS4_EEE4baseEv(ptr noundef nonnull align 8 dereferenceable(8) %5) #19
  %7 = load ptr, ptr %6, align 8, !tbaa !224
  %8 = load ptr, ptr %4, align 8, !tbaa !222
  %9 = call noundef nonnull align 8 dereferenceable(8) ptr @_ZNK9__gnu_cxx17__normal_iteratorIPKPN8facebook4yoga4NodeESt6vectorIS4_SaIS4_EEE4baseEv(ptr noundef nonnull align 8 dereferenceable(8) %8) #19
  %10 = load ptr, ptr %9, align 8, !tbaa !224
  %11 = icmp eq ptr %7, %10
  ret i1 %11
}

; Function Attrs: mustprogress nounwind uwtable
define linkonce_odr ptr @_ZNKSt6vectorIPN8facebook4yoga4NodeESaIS3_EE3endEv(ptr noundef nonnull align 8 dereferenceable(24) %0) #2 comdat align 2 {
  %2 = alloca %"class.__gnu_cxx::__normal_iterator", align 8
  %3 = alloca ptr, align 8
  store ptr %0, ptr %3, align 8, !tbaa !117
  %4 = load ptr, ptr %3, align 8
  %5 = getelementptr inbounds nuw %"struct.std::_Vector_base", ptr %4, i32 0, i32 0
  %6 = getelementptr inbounds nuw %"struct.std::_Vector_base<facebook::yoga::Node *, std::allocator<facebook::yoga::Node *>>::_Vector_impl_data", ptr %5, i32 0, i32 1
  call void @_ZN9__gnu_cxx17__normal_iteratorIPKPN8facebook4yoga4NodeESt6vectorIS4_SaIS4_EEEC2ERKS6_(ptr noundef nonnull align 8 dereferenceable(8) %2, ptr noundef nonnull align 8 dereferenceable(8) %6) #19
  %7 = getelementptr inbounds nuw %"class.__gnu_cxx::__normal_iterator", ptr %2, i32 0, i32 0
  %8 = load ptr, ptr %7, align 8
  ret ptr %8
}

; Function Attrs: mustprogress nounwind uwtable
define linkonce_odr ptr @_ZNKSt6vectorIPN8facebook4yoga4NodeESaIS3_EE5beginEv(ptr noundef nonnull align 8 dereferenceable(24) %0) #2 comdat align 2 {
  %2 = alloca %"class.__gnu_cxx::__normal_iterator", align 8
  %3 = alloca ptr, align 8
  store ptr %0, ptr %3, align 8, !tbaa !117
  %4 = load ptr, ptr %3, align 8
  %5 = getelementptr inbounds nuw %"struct.std::_Vector_base", ptr %4, i32 0, i32 0
  %6 = getelementptr inbounds nuw %"struct.std::_Vector_base<facebook::yoga::Node *, std::allocator<facebook::yoga::Node *>>::_Vector_impl_data", ptr %5, i32 0, i32 0
  call void @_ZN9__gnu_cxx17__normal_iteratorIPKPN8facebook4yoga4NodeESt6vectorIS4_SaIS4_EEEC2ERKS6_(ptr noundef nonnull align 8 dereferenceable(8) %2, ptr noundef nonnull align 8 dereferenceable(8) %6) #19
  %7 = getelementptr inbounds nuw %"class.__gnu_cxx::__normal_iterator", ptr %2, i32 0, i32 0
  %8 = load ptr, ptr %7, align 8
  ret ptr %8
}

; Function Attrs: mustprogress nounwind uwtable
define linkonce_odr noundef nonnull align 8 dereferenceable(24) ptr @_ZNK8facebook4yoga4Node11getChildrenEv(ptr noundef nonnull align 8 dereferenceable(584) %0) #2 comdat align 2 {
  %2 = alloca ptr, align 8
  store ptr %0, ptr %2, align 8, !tbaa !4
  %3 = load ptr, ptr %2, align 8
  %4 = getelementptr inbounds nuw %"class.facebook::yoga::Node", ptr %3, i32 0, i32 10
  ret ptr %4
}

; Function Attrs: mustprogress nounwind uwtable
define linkonce_odr void @_ZN8facebook4yoga4Node15setHasNewLayoutEb(ptr noundef nonnull align 8 dereferenceable(584) %0, i1 noundef zeroext %1) #2 comdat align 2 {
  %3 = alloca ptr, align 8
  %4 = alloca i8, align 1
  store ptr %0, ptr %3, align 8, !tbaa !4
  %5 = zext i1 %1 to i8
  store i8 %5, ptr %4, align 1, !tbaa !15
  %6 = load ptr, ptr %3, align 8
  %7 = load i8, ptr %4, align 1, !tbaa !15, !range !34, !noundef !35
  %8 = trunc i8 %7 to i1
  %9 = zext i1 %8 to i8
  %10 = load i8, ptr %6, align 8
  %11 = and i8 %10, -2
  %12 = or i8 %11, %9
  store i8 %12, ptr %6, align 8
  ret void
}

; Function Attrs: mustprogress nounwind uwtable
define linkonce_odr noundef nonnull align 4 dereferenceable(324) ptr @_ZN8facebook4yoga4Node9getLayoutEv(ptr noundef nonnull align 8 dereferenceable(584) %0) #2 comdat align 2 {
  %2 = alloca ptr, align 8
  store ptr %0, ptr %2, align 8, !tbaa !4
  %3 = load ptr, ptr %2, align 8
  %4 = getelementptr inbounds nuw %"class.facebook::yoga::Node", ptr %3, i32 0, i32 6
  ret ptr %4
}

; Function Attrs: inlinehint mustprogress nounwind uwtable
define linkonce_odr hidden void @_ZN8facebook4yoga13LayoutResultsC2Ev(ptr noundef nonnull align 4 dereferenceable(324) %0) unnamed_addr #6 comdat align 2 {
  %2 = alloca ptr, align 8
  store ptr %0, ptr %2, align 8, !tbaa !23
  %3 = load ptr, ptr %2, align 8
  %4 = getelementptr inbounds nuw %"struct.facebook::yoga::LayoutResults", ptr %3, i32 0, i32 0
  store i32 0, ptr %4, align 4, !tbaa !243
  %5 = getelementptr inbounds nuw %"struct.facebook::yoga::LayoutResults", ptr %3, i32 0, i32 1
  call void @llvm.memset.p0.i64(ptr align 4 %5, i8 0, i64 4, i1 false)
  call void @_ZN8facebook4yoga13FloatOptionalC2Ev(ptr noundef nonnull align 4 dereferenceable(4) %5) #19
  %6 = getelementptr inbounds nuw %"struct.facebook::yoga::LayoutResults", ptr %3, i32 0, i32 2
  store i32 0, ptr %6, align 4, !tbaa !25
  %7 = getelementptr inbounds nuw %"struct.facebook::yoga::LayoutResults", ptr %3, i32 0, i32 3
  store i32 0, ptr %7, align 4, !tbaa !32
  %8 = getelementptr inbounds nuw %"struct.facebook::yoga::LayoutResults", ptr %3, i32 0, i32 4
  store i8 0, ptr %8, align 4, !tbaa !33
  %9 = getelementptr inbounds nuw %"struct.facebook::yoga::LayoutResults", ptr %3, i32 0, i32 5
  store i32 0, ptr %9, align 4, !tbaa !36
  %10 = getelementptr inbounds nuw %"struct.facebook::yoga::LayoutResults", ptr %3, i32 0, i32 6
  %11 = getelementptr inbounds nuw %"struct.std::array.5", ptr %10, i32 0, i32 0
  call void @llvm.memset.p0.i64(ptr align 4 %11, i8 0, i64 192, i1 false)
  %12 = getelementptr inbounds %"struct.facebook::yoga::CachedMeasurement", ptr %11, i64 8
  br label %13

13:                                               ; preds = %13, %1
  %14 = phi ptr [ %11, %1 ], [ %21, %13 ]
  %15 = getelementptr inbounds nuw %"struct.facebook::yoga::CachedMeasurement", ptr %14, i32 0, i32 0
  store float -1.000000e+00, ptr %15, align 4, !tbaa !48
  %16 = getelementptr inbounds nuw %"struct.facebook::yoga::CachedMeasurement", ptr %14, i32 0, i32 1
  store float -1.000000e+00, ptr %16, align 4, !tbaa !50
  %17 = getelementptr inbounds nuw %"struct.facebook::yoga::CachedMeasurement", ptr %14, i32 0, i32 2
  store i32 1, ptr %17, align 4, !tbaa !47
  %18 = getelementptr inbounds nuw %"struct.facebook::yoga::CachedMeasurement", ptr %14, i32 0, i32 3
  store i32 1, ptr %18, align 4, !tbaa !49
  %19 = getelementptr inbounds nuw %"struct.facebook::yoga::CachedMeasurement", ptr %14, i32 0, i32 4
  store float -1.000000e+00, ptr %19, align 4, !tbaa !51
  %20 = getelementptr inbounds nuw %"struct.facebook::yoga::CachedMeasurement", ptr %14, i32 0, i32 5
  store float -1.000000e+00, ptr %20, align 4, !tbaa !52
  %21 = getelementptr inbounds %"struct.facebook::yoga::CachedMeasurement", ptr %14, i64 1
  %22 = icmp eq ptr %21, %12
  br i1 %22, label %23, label %13

23:                                               ; preds = %13
  %24 = getelementptr inbounds nuw %"struct.facebook::yoga::LayoutResults", ptr %3, i32 0, i32 7
  %25 = getelementptr inbounds nuw %"struct.facebook::yoga::CachedMeasurement", ptr %24, i32 0, i32 0
  store float -1.000000e+00, ptr %25, align 4, !tbaa !48
  %26 = getelementptr inbounds nuw %"struct.facebook::yoga::CachedMeasurement", ptr %24, i32 0, i32 1
  store float -1.000000e+00, ptr %26, align 4, !tbaa !50
  %27 = getelementptr inbounds nuw %"struct.facebook::yoga::CachedMeasurement", ptr %24, i32 0, i32 2
  store i32 1, ptr %27, align 4, !tbaa !47
  %28 = getelementptr inbounds nuw %"struct.facebook::yoga::CachedMeasurement", ptr %24, i32 0, i32 3
  store i32 1, ptr %28, align 4, !tbaa !49
  %29 = getelementptr inbounds nuw %"struct.facebook::yoga::CachedMeasurement", ptr %24, i32 0, i32 4
  store float -1.000000e+00, ptr %29, align 4, !tbaa !51
  %30 = getelementptr inbounds nuw %"struct.facebook::yoga::CachedMeasurement", ptr %24, i32 0, i32 5
  store float -1.000000e+00, ptr %30, align 4, !tbaa !52
  %31 = getelementptr inbounds nuw %"struct.facebook::yoga::LayoutResults", ptr %3, i32 0, i32 8
  %32 = load i8, ptr %31, align 4
  %33 = and i8 %32, -4
  %34 = or i8 %33, 0
  store i8 %34, ptr %31, align 4
  %35 = getelementptr inbounds nuw %"struct.facebook::yoga::LayoutResults", ptr %3, i32 0, i32 8
  %36 = load i8, ptr %35, align 4
  %37 = and i8 %36, -5
  %38 = or i8 %37, 0
  store i8 %38, ptr %35, align 4
  %39 = getelementptr inbounds nuw %"struct.facebook::yoga::LayoutResults", ptr %3, i32 0, i32 9
  %40 = getelementptr inbounds nuw %"struct.std::array.6", ptr %39, i32 0, i32 0
  store float 0x7FF8000000000000, ptr %40, align 4, !tbaa !9
  %41 = getelementptr inbounds float, ptr %40, i64 1
  store float 0x7FF8000000000000, ptr %41, align 4, !tbaa !9
  %42 = getelementptr inbounds nuw %"struct.facebook::yoga::LayoutResults", ptr %3, i32 0, i32 10
  %43 = getelementptr inbounds nuw %"struct.std::array.6", ptr %42, i32 0, i32 0
  store float 0x7FF8000000000000, ptr %43, align 4, !tbaa !9
  %44 = getelementptr inbounds float, ptr %43, i64 1
  store float 0x7FF8000000000000, ptr %44, align 4, !tbaa !9
  %45 = getelementptr inbounds nuw %"struct.facebook::yoga::LayoutResults", ptr %3, i32 0, i32 11
  %46 = getelementptr inbounds nuw %"struct.std::array.7", ptr %45, i32 0, i32 0
  call void @llvm.memset.p0.i64(ptr align 4 %46, i8 0, i64 16, i1 false)
  %47 = getelementptr inbounds nuw %"struct.facebook::yoga::LayoutResults", ptr %3, i32 0, i32 12
  %48 = getelementptr inbounds nuw %"struct.std::array.7", ptr %47, i32 0, i32 0
  call void @llvm.memset.p0.i64(ptr align 4 %48, i8 0, i64 16, i1 false)
  %49 = getelementptr inbounds nuw %"struct.facebook::yoga::LayoutResults", ptr %3, i32 0, i32 13
  %50 = getelementptr inbounds nuw %"struct.std::array.7", ptr %49, i32 0, i32 0
  call void @llvm.memset.p0.i64(ptr align 4 %50, i8 0, i64 16, i1 false)
  %51 = getelementptr inbounds nuw %"struct.facebook::yoga::LayoutResults", ptr %3, i32 0, i32 14
  %52 = getelementptr inbounds nuw %"struct.std::array.7", ptr %51, i32 0, i32 0
  call void @llvm.memset.p0.i64(ptr align 4 %52, i8 0, i64 16, i1 false)
  ret void
}

; Function Attrs: mustprogress uwtable
define internal void @_ZN8facebook4yogaL24zeroOutLayoutRecursivelyEPNS0_4NodeE(ptr noundef %0) #0 {
  %2 = alloca ptr, align 8
  %3 = alloca %"struct.facebook::yoga::LayoutResults", align 4
  %4 = alloca ptr, align 8
  %5 = alloca %"class.__gnu_cxx::__normal_iterator", align 8
  %6 = alloca %"class.__gnu_cxx::__normal_iterator", align 8
  %7 = alloca ptr, align 8
  store ptr %0, ptr %2, align 8, !tbaa !4
  call void @llvm.lifetime.start.p0(i64 324, ptr %3) #19
  call void @llvm.memset.p0.i64(ptr align 4 %3, i8 0, i64 324, i1 false)
  call void @_ZN8facebook4yoga13LayoutResultsC2Ev(ptr noundef nonnull align 4 dereferenceable(324) %3) #19
  %8 = load ptr, ptr %2, align 8, !tbaa !4
  %9 = call noundef nonnull align 4 dereferenceable(324) ptr @_ZN8facebook4yoga4Node9getLayoutEv(ptr noundef nonnull align 8 dereferenceable(584) %8)
  call void @llvm.memcpy.p0.p0.i64(ptr align 4 %9, ptr align 4 %3, i64 324, i1 false), !tbaa.struct !201
  call void @llvm.lifetime.end.p0(i64 324, ptr %3) #19
  %10 = load ptr, ptr %2, align 8, !tbaa !4
  call void @_ZN8facebook4yoga4Node18setLayoutDimensionEfNS0_9DimensionE(ptr noundef nonnull align 8 dereferenceable(584) %10, float noundef 0.000000e+00, i8 noundef zeroext 0)
  %11 = load ptr, ptr %2, align 8, !tbaa !4
  call void @_ZN8facebook4yoga4Node18setLayoutDimensionEfNS0_9DimensionE(ptr noundef nonnull align 8 dereferenceable(584) %11, float noundef 0.000000e+00, i8 noundef zeroext 1)
  %12 = load ptr, ptr %2, align 8, !tbaa !4
  call void @_ZN8facebook4yoga4Node15setHasNewLayoutEb(ptr noundef nonnull align 8 dereferenceable(584) %12, i1 noundef zeroext true)
  %13 = load ptr, ptr %2, align 8, !tbaa !4
  call void @_ZN8facebook4yoga4Node21cloneChildrenIfNeededEv(ptr noundef nonnull align 8 dereferenceable(584) %13)
  call void @llvm.lifetime.start.p0(i64 8, ptr %4) #19
  %14 = load ptr, ptr %2, align 8, !tbaa !4
  %15 = call noundef nonnull align 8 dereferenceable(24) ptr @_ZNK8facebook4yoga4Node11getChildrenEv(ptr noundef nonnull align 8 dereferenceable(584) %14)
  store ptr %15, ptr %4, align 8, !tbaa !117
  call void @llvm.lifetime.start.p0(i64 8, ptr %5) #19
  %16 = load ptr, ptr %4, align 8, !tbaa !117
  %17 = call ptr @_ZNKSt6vectorIPN8facebook4yoga4NodeESaIS3_EE5beginEv(ptr noundef nonnull align 8 dereferenceable(24) %16) #19
  %18 = getelementptr inbounds nuw %"class.__gnu_cxx::__normal_iterator", ptr %5, i32 0, i32 0
  store ptr %17, ptr %18, align 8
  call void @llvm.lifetime.start.p0(i64 8, ptr %6) #19
  %19 = load ptr, ptr %4, align 8, !tbaa !117
  %20 = call ptr @_ZNKSt6vectorIPN8facebook4yoga4NodeESaIS3_EE3endEv(ptr noundef nonnull align 8 dereferenceable(24) %19) #19
  %21 = getelementptr inbounds nuw %"class.__gnu_cxx::__normal_iterator", ptr %6, i32 0, i32 0
  store ptr %20, ptr %21, align 8
  br label %22

22:                                               ; preds = %30, %1
  %23 = call noundef zeroext i1 @_ZN9__gnu_cxxeqIPKPN8facebook4yoga4NodeESt6vectorIS4_SaIS4_EEEEbRKNS_17__normal_iteratorIT_T0_EESF_QrqXeqcldtfp_4baseEcldtfp0_4baseERSt14convertible_toIbEE(ptr noundef nonnull align 8 dereferenceable(8) %5, ptr noundef nonnull align 8 dereferenceable(8) %6) #19
  %24 = xor i1 %23, true
  br i1 %24, label %26, label %25

25:                                               ; preds = %22
  call void @llvm.lifetime.end.p0(i64 8, ptr %6) #19
  call void @llvm.lifetime.end.p0(i64 8, ptr %5) #19
  call void @llvm.lifetime.end.p0(i64 8, ptr %4) #19
  br label %32

26:                                               ; preds = %22
  call void @llvm.lifetime.start.p0(i64 8, ptr %7) #19
  %27 = call noundef nonnull align 8 dereferenceable(8) ptr @_ZNK9__gnu_cxx17__normal_iteratorIPKPN8facebook4yoga4NodeESt6vectorIS4_SaIS4_EEEdeEv(ptr noundef nonnull align 8 dereferenceable(8) %5) #19
  %28 = load ptr, ptr %27, align 8, !tbaa !4
  store ptr %28, ptr %7, align 8, !tbaa !4
  %29 = load ptr, ptr %7, align 8, !tbaa !4
  call void @_ZN8facebook4yogaL24zeroOutLayoutRecursivelyEPNS0_4NodeE(ptr noundef %29)
  call void @llvm.lifetime.end.p0(i64 8, ptr %7) #19
  br label %30

30:                                               ; preds = %26
  %31 = call noundef nonnull align 8 dereferenceable(8) ptr @_ZN9__gnu_cxx17__normal_iteratorIPKPN8facebook4yoga4NodeESt6vectorIS4_SaIS4_EEEppEv(ptr noundef nonnull align 8 dereferenceable(8) %5) #19
  br label %22

32:                                               ; preds = %25
  ret void
}