; Function Attrs: mustprogress uwtable
define internal fastcc void @_ZN8facebook4yogaL24zeroOutLayoutRecursivelyEPNS0_4NodeE(ptr noundef %0) unnamed_addr #0 {
  %2 = alloca %"struct.facebook::yoga::LayoutResults", align 4
  call void @llvm.lifetime.start.p0(i64 324, ptr nonnull %2) #14
  %3 = getelementptr inbounds nuw i8, ptr %2, i64 4
  call void @llvm.memset.p0.i64(ptr noundef nonnull align 4 dereferenceable(324) %2, i8 0, i64 324, i1 false)
  store float 0x7FF8000000000000, ptr %3, align 4, !tbaa !124
  %4 = getelementptr inbounds nuw i8, ptr %2, i64 8
  %5 = getelementptr inbounds nuw i8, ptr %2, i64 20
  call void @llvm.memset.p0.i64(ptr noundef nonnull align 4 dereferenceable(9) %4, i8 0, i64 9, i1 false)
  call void @llvm.memset.p0.i64(ptr noundef nonnull align 4 dereferenceable(196) %5, i8 0, i64 196, i1 false)
  br label %6

6:                                                ; preds = %6, %1
  %.idx.i = phi i64 [ 24, %1 ], [ %.add.i, %6 ]
  %.ptr.i = getelementptr inbounds nuw i8, ptr %2, i64 %.idx.i
  store float -1.000000e+00, ptr %.ptr.i, align 4, !tbaa !71
  %7 = getelementptr inbounds nuw i8, ptr %.ptr.i, i64 4
  store float -1.000000e+00, ptr %7, align 4, !tbaa !73
  %8 = getelementptr inbounds nuw i8, ptr %.ptr.i, i64 8
  store i32 1, ptr %8, align 4, !tbaa !70
  %9 = getelementptr inbounds nuw i8, ptr %.ptr.i, i64 12
  store i32 1, ptr %9, align 4, !tbaa !72
  %10 = getelementptr inbounds nuw i8, ptr %.ptr.i, i64 16
  store float -1.000000e+00, ptr %10, align 4, !tbaa !74
  %11 = getelementptr inbounds nuw i8, ptr %.ptr.i, i64 20
  store float -1.000000e+00, ptr %11, align 4, !tbaa !75
  %.add.i = add nuw nsw i64 %.idx.i, 24
  %12 = icmp eq i64 %.add.i, 216
  br i1 %12, label %_ZN8facebook4yoga13LayoutResultsC2Ev.exit, label %6

_ZN8facebook4yoga13LayoutResultsC2Ev.exit:        ; preds = %6
  %13 = getelementptr inbounds nuw i8, ptr %2, i64 216
  store float -1.000000e+00, ptr %13, align 4, !tbaa !71
  %14 = getelementptr inbounds nuw i8, ptr %2, i64 220
  store float -1.000000e+00, ptr %14, align 4, !tbaa !73
  %15 = getelementptr inbounds nuw i8, ptr %2, i64 224
  store i32 1, ptr %15, align 4, !tbaa !70
  %16 = getelementptr inbounds nuw i8, ptr %2, i64 228
  store i32 1, ptr %16, align 4, !tbaa !72
  %17 = getelementptr inbounds nuw i8, ptr %2, i64 232
  store float -1.000000e+00, ptr %17, align 4, !tbaa !74
  %18 = getelementptr inbounds nuw i8, ptr %2, i64 236
  store float -1.000000e+00, ptr %18, align 4, !tbaa !75
  %19 = getelementptr inbounds nuw i8, ptr %2, i64 240
  %20 = load i8, ptr %19, align 4
  %21 = and i8 %20, -8
  store i8 %21, ptr %19, align 4
  %22 = getelementptr inbounds nuw i8, ptr %2, i64 244
  store float 0x7FF8000000000000, ptr %22, align 4, !tbaa !77
  %23 = getelementptr inbounds nuw i8, ptr %2, i64 248
  store float 0x7FF8000000000000, ptr %23, align 4, !tbaa !77
  %24 = getelementptr inbounds nuw i8, ptr %2, i64 252
  store float 0x7FF8000000000000, ptr %24, align 4, !tbaa !77
  %25 = getelementptr inbounds nuw i8, ptr %2, i64 256
  store float 0x7FF8000000000000, ptr %25, align 4, !tbaa !77
  %26 = getelementptr inbounds nuw i8, ptr %2, i64 260
  call void @llvm.memset.p0.i64(ptr noundef nonnull align 4 dereferenceable(64) %26, i8 0, i64 64, i1 false)
  %27 = getelementptr inbounds nuw i8, ptr %0, i64 184
  call void @llvm.memcpy.p0.p0.i64(ptr noundef nonnull align 4 dereferenceable(324) %27, ptr noundef nonnull align 4 dereferenceable(324) %2, i64 324, i1 false), !tbaa.struct !168
  call void @llvm.lifetime.end.p0(i64 324, ptr nonnull %2) #14
  tail call void @_ZN8facebook4yoga4Node18setLayoutDimensionEfNS0_9DimensionE(ptr noundef nonnull align 8 dereferenceable(584) %0, float noundef 0.000000e+00, i8 noundef zeroext 0)
  tail call void @_ZN8facebook4yoga4Node18setLayoutDimensionEfNS0_9DimensionE(ptr noundef nonnull align 8 dereferenceable(584) %0, float noundef 0.000000e+00, i8 noundef zeroext 1)
  %28 = load i8, ptr %0, align 8
  %29 = or i8 %28, 1
  store i8 %29, ptr %0, align 8
  tail call void @_ZN8facebook4yoga4Node21cloneChildrenIfNeededEv(ptr noundef nonnull align 8 dereferenceable(584) %0)
  %30 = getelementptr inbounds nuw i8, ptr %0, i64 536
  %31 = load ptr, ptr %30, align 8, !tbaa !140
  %32 = getelementptr inbounds nuw i8, ptr %0, i64 544
  %33 = load ptr, ptr %32, align 8, !tbaa !140
  %34 = icmp eq ptr %31, %33
  br i1 %34, label %._crit_edge, label %.lr.ph

._crit_edge:                                      ; preds = %.lr.ph, %_ZN8facebook4yoga13LayoutResultsC2Ev.exit
  ret void

.lr.ph:                                           ; preds = %_ZN8facebook4yoga13LayoutResultsC2Ev.exit, %.lr.ph
  %.sroa.09.012 = phi ptr [ %36, %.lr.ph ], [ %31, %_ZN8facebook4yoga13LayoutResultsC2Ev.exit ]
  %35 = load ptr, ptr %.sroa.09.012, align 8, !tbaa !111
  tail call fastcc void @_ZN8facebook4yogaL24zeroOutLayoutRecursivelyEPNS0_4NodeE(ptr noundef %35)
  %36 = getelementptr inbounds nuw i8, ptr %.sroa.09.012, i64 8
  %37 = icmp eq ptr %36, %33
  br i1 %37, label %._crit_edge, label %.lr.ph
}